
user/client.gdb.bin：     文件格式 elf32-i386

Contents of section .text:
 80480c0 5589e557 5383ec30 e8f80300 0081c333  U..WS..0.......3
 80480d0 1f00008d 55c8b800 000000b9 0c000000  ....U...........
 80480e0 89d7f3ab 66c745c8 ffff66c7 45ca0400  ....f.E...f.E...
 80480f0 c745cc02 000000c7 45d00400 0000c745  .E......E......E
 8048100 d8020000 008b4508 8945dc8b 450c8945  ......E..E..E..E
 8048110 e083ec0c 8d45c850 e8250600 0083c410  .....E.P.%......
 8048120 8d65f85b 5f5dc355 89e55753 83ec30e8  .e.[_].U..WS..0.
 8048130 91030000 81c3cc1e 00008d55 c8b80000  ...........U....
 8048140 0000b90c 00000089 d7f3ab66 c745c8ff  ...........f.E..
 8048150 ff66c745 ca0400c7 45cc0100 0000c745  .f.E....E......E
 8048160 d0040000 00c745d4 01000000 c745d802  ......E......E..
 8048170 0000008b 45088945 dc8b450c 8945e083  ....E..E..E..E..
 8048180 ec0c8d45 c850e8b7 05000083 c4108d65  ...E.P.........e
 8048190 f85b5f5d c35589e5 575383ec 30e82303  .[_].U..WS..0.#.
 80481a0 000081c3 5e1e0000 8d55c8b8 00000000  ....^....U......
 80481b0 b90c0000 0089d7f3 ab66c745 c8ffff66  .........f.E...f
 80481c0 c745ca04 00c745cc 02000000 c745d004  .E....E......E..
 80481d0 000000c7 45d40200 0000c745 d8020000  ....E......E....
 80481e0 008b4508 8945dc8b 450c8945 e083ec0c  ..E..E..E..E....
 80481f0 8d45c850 e8490500 0083c410 8d65f85b  .E.P.I.......e.[
 8048200 5f5dc355 89e55753 83ec30e8 b5020000  _].U..WS..0.....
 8048210 81c3f01d 00008d55 c8b80000 0000b90c  .......U........
 8048220 00000089 d7f3ab66 c745c8ff ff66c745  .......f.E...f.E
 8048230 ca0400c7 45cc0100 0000c745 d0040000  ....E......E....
 8048240 00c745d4 03000000 c745d802 0000008b  ..E......E......
 8048250 45088945 dc8b450c 8945e083 ec0c8d45  E..E..E..E.....E
 8048260 c850e8db 04000083 c4108d65 f85b5f5d  .P.........e.[_]
 8048270 c35589e5 575383ec 30e84702 000081c3  .U..WS..0.G.....
 8048280 821d0000 8d55c8b8 00000000 b90c0000  .....U..........
 8048290 0089d7f3 ab66c745 c8ffff66 c745ca04  .....f.E...f.E..
 80482a0 00c745cc 02000000 c745d004 000000c7  ..E......E......
 80482b0 45d40400 0000c745 d8020000 008b4508  E......E......E.
 80482c0 8945dc8b 450c8945 e083ec0c 8d45c850  .E..E..E.....E.P
 80482d0 e86d0400 0083c410 8d65f85b 5f5dc355  .m.......e.[_].U
 80482e0 89e55753 83ec30e8 d9010000 81c3141d  ..WS..0.........
 80482f0 00008d55 c8b80000 0000b90c 00000089  ...U............
 8048300 d7f3ab66 c745c8ff ff66c745 ca0400c7  ...f.E...f.E....
 8048310 45cc0200 0000c745 d0040000 00c745d4  E......E......E.
 8048320 05000000 c745d802 0000008b 45088945  .....E......E..E
 8048330 dc8b450c 8945e083 ec0c8d45 c850e8ff  ..E..E.....E.P..
 8048340 03000083 c4108d65 f85b5f5d c35589e5  .......e.[_].U..
 8048350 5783ec40 e8680100 0005a71c 00008d55  W..@.h.........U
 8048360 c8b80000 0000b90c 00000089 d7f3ab66  ...............f
 8048370 c745c8ff ff66c745 ca0400c7 45cc0100  .E...f.E....E...
 8048380 00008d45 c883c008 8945f88b 45f8c700  ...E.....E..E...
 8048390 02000000 8b45f8c7 4004fa00 00008b45  .....E..@......E
 80483a0 f8c74008 fa000000 9083c440 5f5dc38d  ..@........@_]..
 80483b0 4c240483 e4f0ff71 fc5589e5 57535183  L$.....q.U..WSQ.
 80483c0 ec4ce8fe 00000081 c3391c00 008d55ac  .L.......9....U.
 80483d0 b8000000 00b90c00 000089d7 f3ab66c7  ..............f.
 80483e0 45acffff 66c745ae 0400c745 b0020000  E...f.E....E....
 80483f0 008d45ac 83c00889 45e08b45 e0c70002  ..E.....E..E....
 8048400 0000008b 45e0c740 04320000 008b45e0  ....E..@.2....E.
 8048410 c7400832 00000083 ec0c8d45 ac50e81f  .@.2.......E.P..
 8048420 03000083 c41083ec 0c8d45ac 50e81e03  ..........E.P...
 8048430 000083c4 108b45b4 8945dc83 ec086890  ......E..E....h.
 8048440 010000ff 75dce8b8 fdffff83 c41083ec  ....u...........
 8048450 08689001 0000ff75 dce8c9fc ffff83c4  .h.....u........
 8048460 1083ec04 6a306a00 8d45ac50 e8f80000  ....j0j..E.P....
 8048470 0083c410 66c745ae 0400c745 b0010000  ....f.E....E....
 8048480 00c745b4 05000000 c7c0c984 04088945  ..E............E
 8048490 b88d834d e3ffff89 45bc83ec 0c8d45ac  ...M....E.....E.
 80484a0 50e89c02 000083c4 10c745e4 00000000  P.........E.....
 80484b0 eb048345 e401817d e49f8601 007ef3eb  ...E...}.....~..
 80484c0 e88b0424 c38b1c24 c35589e5 575383ec  ...$...$.U..WS..
 80484d0 40e8efff ffff81c3 2a1b0000 8b450889  @.......*....E..
 80484e0 45f48b45 f4ffd08d 55c4b800 000000b9  E..E....U.......
 80484f0 0c000000 89d7f3ab 66c745c4 ffff66c7  ........f.E...f.
 8048500 45c6ffff c745c803 000000c7 45cc0100  E....E......E...
 8048510 000083ec 0c8d45c4 50e82402 000083c4  ......E.P.$.....
 8048520 10908d65 f85b5f5d c3669066 90669090  ...e.[_].f.f.f..
 8048530 5051e878 fefffff4 66906690 66906690  PQ.x....f.f.f.f.
 8048540 5589e556 57518b7d 088b750c 8b4d1083  U..VWQ.}..u..M..
 8048550 f900740b 3e8a0646 26880747 49ebf08b  ..t.>..F&..GI...
 8048560 4508595f 5e89ec5d c35589e5 5657518b  E.Y_^..].U..VWQ.
 8048570 7d088b55 0c8b4d10 83f90074 06881747  }..U..M....t...G
 8048580 49ebf559 5f5e89ec 5dc35589 e58b750c  I..Y_^..].U...u.
 8048590 8b7d088a 06468807 473c0075 f68b4508  .}...F..G<.u..E.
 80485a0 5dc35589 e5b80000 00008b75 08803e00  ].U........u..>.
 80485b0 74044640 ebf75dc3 66906690 66906690  t.F@..].f.f.f.f.
 80485c0 b8000000 00cd90c3 b8010000 00cd90c3  ................
 80485d0 8b5c2404 b8020000 00cd90c3 8b5c2404  .\$..........\$.
 80485e0 b8030000 00cd90c3 538b5c24 08b80400  ........S.\$....
 80485f0 0000cd90 5bc38b5c 2404b805 000000cd  ....[..\$.......
 8048600 90c38b5c 2404b806 000000cd 90c38b5c  ...\$..........\
 8048610 2404b807 000000cd 90c3b808 000000cd  $...............
 8048620 90c3538b 5c2408b8 09000000 cd905bc3  ..S.\$........[.
 8048630 8b5c2404 b80a0000 00cd90c3 8b5c2404  .\$..........\$.
 8048640 b80b0000 00cd90c3 538b5c24 08b80c00  ........S.\$....
 8048650 0000cd90 5bc3538b 5c2408b8 0d000000  ....[.S.\$......
 8048660 cd905bc3 8b5c2404 b80e0000 00cd90c3  ..[..\$.........
 8048670 538b5c24 08b80f00 0000cd90 5bc38b5c  S.\$........[..\
 8048680 2404b810 000000cd 90c3536a 0289e383  $.........Sj....
 8048690 c304b811 000000cd 9083c404 5bc36a01  ............[.j.
 80486a0 89e3b812 000000cd 9083c404 c36a0389  .............j..
 80486b0 e3b81300 0000cd90 83c404c3 6a0389e3  ............j...
 80486c0 b8140000 00cd9083 c404c36a 0389e3b8  ...........j....
 80486d0 15000000 cd9083c4 04c36a01 89e3b816  ..........j.....
 80486e0 000000cd 9083c404 c36a0189 e3b81700  .........j......
 80486f0 0000cd90 83c404c3 6a0189e3 b8180000  ........j.......
 8048700 00cd9083 c404c36a 0189e3b8 19000000  .......j........
 8048710 cd9083c4 04c36a01 89e3b81a 000000cd  ......j.........
 8048720 9083c404 c36a0189 e3b81b00 0000cd90  .....j..........
 8048730 83c404c3 538b5c24 08b81c00 0000cd90  ....S.\$........
 8048740 5bc3538b 5c2408b8 1d000000 cd905bc3  [.S.\$........[.
 8048750 538b5c24 08b81e00 0000cd90 5bc3      S.\$........[.  
Contents of section .eh_frame:
 8048760 14000000 00000000 017a5200 017c0801  .........zR..|..
 8048770 1b0c0404 88010000 24000000 1c000000  ........$.......
 8048780 40f9ffff 67000000 00410e08 8502420d  @...g....A....B.
 8048790 05458703 8304025c c341c741 c50c0404  .E.....\.A.A....
 80487a0 24000000 44000000 7ff9ffff 6e000000  $...D.......n...
 80487b0 00410e08 8502420d 05458703 83040263  .A....B..E.....c
 80487c0 c341c741 c50c0404 24000000 6c000000  .A.A....$...l...
 80487d0 c5f9ffff 6e000000 00410e08 8502420d  ....n....A....B.
 80487e0 05458703 83040263 c341c741 c50c0404  .E.....c.A.A....
 80487f0 24000000 94000000 0bfaffff 6e000000  $...........n...
 8048800 00410e08 8502420d 05458703 83040263  .A....B..E.....c
 8048810 c341c741 c50c0404 24000000 bc000000  .A.A....$.......
 8048820 51faffff 6e000000 00410e08 8502420d  Q...n....A....B.
 8048830 05458703 83040263 c341c741 c50c0404  .E.....c.A.A....
 8048840 24000000 e4000000 97faffff 6e000000  $...........n...
 8048850 00410e08 8502420d 05458703 83040263  .A....B..E.....c
 8048860 c341c741 c50c0404 20000000 0c010000  .A.A.... .......
 8048870 ddfaffff 62000000 00410e08 8502420d  ....b....A....B.
 8048880 05448703 0259c741 c50c0404 28000000  .D...Y.A....(...
 8048890 30010000 1bfbffff 12010000 00440c01  0............D..
 80488a0 00471005 02750045 0f037574 06100702  .G...u.E..ut....
 80488b0 757c1003 02757800 10000000 5c010000  u|...ux.....\...
 80488c0 01fcffff 04000000 00000000 10000000  ................
 80488d0 70010000 f1fbffff 04000000 00000000  p...............
 80488e0 24000000 84010000 e1fbffff 60000000  $...........`...
 80488f0 00410e08 8502420d 05458703 83040255  .A....B..E.....U
 8048900 c341c741 c50c0404                    .A.A....        
Contents of section .got.plt:
 804a000 00000000 00000000 00000000           ............    
Contents of section .comment:
 0000 4743433a 2028474e 55292037 2e352e30  GCC: (GNU) 7.5.0
 0010 00                                   .               
Contents of section .debug_aranges:
 0000 1c000000 02000000 00000400 00000000  ................
 0010 c0800408 01040000 00000000 00000000  ................
 0020 1c000000 02000304 00000400 00000000  ................
 0030 c9840408 60000000 00000000 00000000  ....`...........
 0040 1c000000 0200bc05 00000400 00000000  ................
 0050 40850408 78000000 00000000 00000000  @...x...........
 0060 1c000000 0200fc05 00000400 00000000  ................
 0070 c0850408 9e010000 00000000 00000000  ................
Contents of section .debug_info:
 0000 ff030000 04000000 00000401 22000000  ............"...
 0010 0c8d0100 009a0000 00c08004 08010400  ................
 0020 00000000 00020108 09010000 02020781  ................
 0030 00000002 04075b01 00000204 07560100  ......[......V..
 0040 00020106 0b010000 0202059b 01000003  ................
 0050 1e010000 03282c00 00000404 05696e74  .....(,......int
 0060 00033201 0000032a 33000000 0208057f  ..2....*3.......
 0070 01000002 08075101 00000204 05840100  ......Q.........
 0080 00050487 00000002 01061201 00000320  ............... 
 0090 01000004 194f0000 00033401 0000041a  .....O....4.....
 00a0 61000000 06680100 0030050a e1000000  a....h...0......
 00b0 07737263 00050c8e 00000000 07647374  .src.........dst
 00c0 00050d8e 00000002 08960100 00050e99  ................
 00d0 00000004 08470100 00050fe1 00000008  .....G..........
 00e0 00099900 0000f100 00000a33 00000009  ...........3....
 00f0 00036801 00000510 a4000000 0bfe0000  ..h.............
 0100 00070433 00000005 142c0100 000cf501  ...3.....,......
 0110 0000000c 03010000 010c3d01 0000020c  ..........=.....
 0120 e2010000 030d4143 4b000400 020c04e9  ......ACK.......
 0130 01000002 10047700 00000bfa 00000007  ......w.........
 0140 04330000 00061f70 0100000c 29010000  .3.....p....)...
 0150 000c9400 0000010c a5010000 020cac01  ................
 0160 0000030c ff010000 040ce900 00000500  ................
 0170 0e18062b 91010000 08960100 00062c5a  ...+..........,Z
 0180 00000000 08470100 00062d91 01000004  .....G....-.....
 0190 00095a00 0000a101 00000a33 00000004  ..Z........3....
 01a0 000f4755 4900062e 70010000 104c0100  ..GUI...p....L..
 01b0 000226af 83040812 01000001 9c300200  ..&..........0..
 01c0 00116172 67000226 5a000000 02910012  ..arg..&Z.......
 01d0 b3010000 02263002 00000291 04136d73  .....&0.......ms
 01e0 67000227 f1000000 0375ac7f 14430100  g..'.....u...C..
 01f0 00022d36 02000002 75601362 746e0002  ..-6....u`.btn..
 0200 355a0000 0002755c 15170100 00023a5a  5Z....u\......:Z
 0210 00000019 02000016 0017a984 04081600  ................
 0220 00001369 0002435a 00000002 75640000  ...i..CZ....ud..
 0230 05048100 00000504 a1010000 18dd0100  ................
 0240 0002174d 83040862 00000001 9c6e0200  ...M...b.....n..
 0250 00136d73 67000218 f1000000 02914014  ..msg.........@.
 0260 43010000 021e3602 00000291 70001912  C.....6.....p...
 0270 00000001 4b5a0000 00df8204 086e0000  ....KZ.......n..
 0280 00019cb2 02000012 08020000 014b5a00  .............KZ.
 0290 00000291 00120e02 0000014b 5a000000  ...........KZ...
 02a0 02910413 6d736700 014df100 00000291  ....msg..M......
 02b0 40001900 00000001 3e5a0000 00718204  @.......>Z...q..
 02c0 086e0000 00019cf6 02000012 08020000  .n..............
 02d0 013e5a00 00000291 00120e02 0000013e  .>Z............>
 02e0 5a000000 02910413 6d736700 0140f100  Z.......msg..@..
 02f0 00000291 40001914 02000001 315a0000  ....@.......1Z..
 0300 00038204 086e0000 00019c3a 03000012  .....n.....:....
 0310 08020000 01315a00 00000291 00120e02  .....1Z.........
 0320 00000131 5a000000 02910413 6d736700  ...1Z.......msg.
 0330 0133f100 00000291 400019c8 01000001  .3......@.......
 0340 245a0000 00958104 086e0000 00019c7e  $Z.......n.....~
 0350 03000012 08020000 01245a00 00000291  .........$Z.....
 0360 00120e02 00000124 5a000000 02910413  .......$Z.......
 0370 6d736700 0126f100 00000291 40001970  msg..&......@..p
 0380 01000001 175a0000 00278104 086e0000  .....Z...'...n..
 0390 00019cc2 03000012 08020000 01175a00  ..............Z.
 03a0 00000291 00120e02 00000117 5a000000  ............Z...
 03b0 02910413 6d736700 0119f100 00000291  ....msg.........
 03c0 40001ab8 01000001 0a5a0000 00c08004  @........Z......
 03d0 08670000 00019c12 08020000 010a5a00  .g............Z.
 03e0 00000291 00120e02 0000010a 5a000000  ............Z...
 03f0 02910413 6d736700 010cf100 00000291  ....msg.........
 0400 400000b5 01000004 00830100 00040122  @.............."
 0410 0000000c 30020000 9a000000 c9840408  ....0...........
 0420 60000000 fd000000 02010809 01000002  `...............
 0430 02078100 00000204 075b0100 00020407  .........[......
 0440 56010000 0201060b 01000002 02059b01  V...............
 0450 0000031e 01000002 282c0000 00040405  ........(,......
 0460 696e7400 03320100 00022a33 00000002  int..2....*3....
 0470 08057f01 00000208 07510100 00020405  .........Q......
 0480 84010000 05040201 06120100 00032001  .............. .
 0490 00000319 4f000000 03340100 00031a61  ....O....4.....a
 04a0 00000006 68010000 30040add 00000007  ....h...0.......
 04b0 73726300 040c8a00 00000007 64737400  src.........dst.
 04c0 040d8a00 00000208 96010000 040e9500  ................
 04d0 00000408 47010000 040fdd00 00000800  ....G...........
 04e0 09950000 00ed0000 000a3300 00000900  ..........3.....
 04f0 03680100 000410a0 0000000b fe000000  .h..............
 0500 07043300 00000414 28010000 0cf50100  ..3.....(.......
 0510 00000c03 01000001 0c3d0100 00020ce2  .........=......
 0520 01000003 0d41434b 0004000b 3d020000  .....ACK....=...
 0530 07043300 00000425 46010000 0c650200  ..3....%F....e..
 0540 00000c76 02000001 00064602 00000405  ...v......F.....
 0550 065f0100 00082802 00000507 81000000  ._....(.........
 0560 00000346 02000005 08460100 000e6e02  ...F.....F....n.
 0570 00000103 c9840408 60000000 019cab01  ........`.......
 0580 00000f5b 02000001 035f0100 00029100  ...[....._......
 0590 10230200 000104b2 01000002 916c1050  .#...........l.P
 05a0 02000001 07ed0000 000391bc 7f0011b2  ................
 05b0 01000012 001304ab 01000000 3c000000  ............<...
 05c0 02007202 00000401 40850408 b8850408  ..r.....@.......
 05d0 92010000 6c69622f 73747269 6e672e61  ....lib/string.a
 05e0 736d004e 41534d20 322e3135 2e303500  sm.NASM 2.15.05.
 05f0 01800240 85040800 00000000 40000000  ...@........@...
 0600 02008d02 00000401 c0850408 5e870408  ............^...
 0610 12020000 6b65726e 656c2f73 79736361  ....kernel/sysca
 0620 6c6c2e61 736d004e 41534d20 322e3135  ll.asm.NASM 2.15
 0630 2e303500 018002c0 85040800 00000000  .05.............
Contents of section .debug_abbrev:
 0000 01110125 0e130b03 0e1b0e11 01120610  ...%............
 0010 17000002 24000b0b 3e0b030e 00000316  ....$...>.......
 0020 00030e3a 0b3b0b49 13000004 24000b0b  ...:.;.I....$...
 0030 3e0b0308 0000050f 000b0b49 13000006  >..........I....
 0040 1301030e 0b0b3a0b 3b0b0113 0000070d  ......:.;.......
 0050 0003083a 0b3b0b49 13380b00 00080d00  ...:.;.I.8......
 0060 030e3a0b 3b0b4913 380b0000 09010149  ..:.;.I.8......I
 0070 13011300 000a2100 49132f0b 00000b04  ......!.I./.....
 0080 01030e3e 0b0b0b49 133a0b3b 0b011300  ...>...I.:.;....
 0090 000c2800 030e1c0b 00000d28 0003081c  ..(........(....
 00a0 0b00000e 13010b0b 3a0b3b0b 01130000  ........:.;.....
 00b0 0f160003 083a0b3b 0b491300 00102e01  .....:.;.I......
 00c0 3f19030e 3a0b3b0b 27191101 12064018  ?...:.;.'.....@.
 00d0 96421901 13000011 05000308 3a0b3b0b  .B..........:.;.
 00e0 49130218 00001205 00030e3a 0b3b0b49  I..........:.;.I
 00f0 13021800 00133400 03083a0b 3b0b4913  ......4...:.;.I.
 0100 02180000 14340003 0e3a0b3b 0b491302  .....4...:.;.I..
 0110 18000015 2e013f19 030e3a0b 3b0b4913  ......?...:.;.I.
 0120 3c190113 00001618 00000017 0b011101  <...............
 0130 12060000 182e013f 19030e3a 0b3b0b11  .......?...:.;..
 0140 01120640 18974219 01130000 192e013f  ...@..B........?
 0150 19030e3a 0b3b0b27 19491311 01120640  ...:.;.'.I.....@
 0160 18964219 01130000 1a2e013f 19030e3a  ..B........?...:
 0170 0b3b0b27 19491311 01120640 18964219  .;.'.I.....@..B.
 0180 00000001 1101250e 130b030e 1b0e1101  ......%.........
 0190 12061017 00000224 000b0b3e 0b030e00  .......$...>....
 01a0 00031600 030e3a0b 3b0b4913 00000424  ......:.;.I....$
 01b0 000b0b3e 0b030800 00050f00 0b0b0000  ...>............
 01c0 06130103 0e0b0b3a 0b3b0b01 13000007  .......:.;......
 01d0 0d000308 3a0b3b0b 4913380b 0000080d  ....:.;.I.8.....
 01e0 00030e3a 0b3b0b49 13380b00 00090101  ...:.;.I.8......
 01f0 49130113 00000a21 0049132f 0b00000b  I......!.I./....
 0200 0401030e 3e0b0b0b 49133a0b 3b0b0113  ....>...I.:.;...
 0210 00000c28 00030e1c 0b00000d 28000308  ...(........(...
 0220 1c0b0000 0e2e013f 19030e3a 0b3b0b27  .......?...:.;.'
 0230 19110112 06401896 42190113 00000f05  .....@..B.......
 0240 00030e3a 0b3b0b49 13021800 00103400  ...:.;.I......4.
 0250 030e3a0b 3b0b4913 02180000 11150101  ..:.;.I.........
 0260 13000012 18000000 130f000b 0b491300  .............I..
 0270 00000111 01110112 01100603 08250813  .............%..
 0280 05000002 2e001101 40060000 00011101  ........@.......
 0290 11011201 10060308 25081305 0000022e  ........%.......
 02a0 00110140 06000000                    ...@....        
Contents of section .debug_line:
 0000 f9000000 03008700 00000101 fb0e0d00  ................
 0010 01010101 00000001 0000012e 2e2f696e  ............./in
 0020 636c7564 652f6775 69002f75 73722f69  clude/gui./usr/i
 0030 6e636c75 64652f62 69747300 2e2e2f69  nclude/bits.../i
 0040 6e636c75 64652f69 70630000 6170692e  nclude/ipc..api.
 0050 68000100 00636c69 656e742e 63000000  h....client.c...
 0060 00747970 65732e68 00020000 73746469  .types.h....stdi
 0070 6e742d75 696e746e 2e680002 00006970  nt-uintn.h....ip
 0080 632e6800 03000067 75692e68 00010000  c.h....gui.h....
 0090 00000502 c0800408 030a0108 2f023e18  ............/.>.
 00a0 e579082f 024518e5 79082f02 4518e579  .y./.E..y./.E..y
 00b0 082f0245 18e57908 2f024518 e579082f  ./.E..y./.E..y./
 00c0 024518e5 04020343 74081302 24189191  .E.....Ct...$...
 00d0 9fa02168 08c90224 1891919f 9fe6e668  ..!h...$.......h
 00e0 082f0830 082f6775 759191e7 00020403  ./.0./guu.......
 00f0 06900002 04014a90 02020001 01910000  ......J.........
 0100 00030076 00000001 01fb0e0d 00010101  ...v............
 0110 01000000 01000001 69706300 2f757372  ........ipc./usr
 0120 2f696e63 6c756465 2f626974 73002e2e  /include/bits...
 0130 2f696e63 6c756465 2f697063 00007369  /include/ipc..si
 0140 676e616c 2e630001 00007479 7065732e  gnal.c....types.
 0150 68000200 00737464 696e742d 75696e74  h....stdint-uint
 0160 6e2e6800 02000069 70632e68 00030000  n.h....ipc.h....
 0170 7369676e 616c2e68 00030000 00000502  signal.h........
 0180 c9840408 14083067 59022b18 e5020800  ......0gY.+.....
 0190 01017c00 00000200 25000000 0101fb0e  ..|.....%.......
 01a0 0d000101 01010000 00010000 01006c69  ..............li
 01b0 622f7374 72696e67 2e61736d 00000000  b/string.asm....
 01c0 00000502 40850408 03130121 30212122  ....@......!0!!"
 01d0 3d3d3e3d 303d223d 2221303e 2121212f  ==>=0="="!0>!!!/
 01e0 22282130 2121223d 3d3e3d30 2f222131  "(!0!!"==>=0/"!1
 01f0 2121212f 22282130 3d3f2f22 2f222f30  !!!/"(!0=?/"/"/0
 0200 3e212821 30593f3d 2f212131 21020100  >!(!0Y?=/!!1!...
 0210 0101ec00 00000200 29000000 0101fb0e  ........).......
 0220 0d000101 01010000 00010000 01006b65  ..............ke
 0230 726e656c 2f737973 63616c6c 2e61736d  rnel/syscall.asm
 0240 00000000 00000502 c0850408 03d80001  ................
 0250 592f2659 2f264b59 2f264b59 2f26214b  Y/&Y/&KY/&KY/&!K
 0260 592f2126 4b592f26 4b592f26 4b592f27  Y/!&KY/&KY/&KY/'
 0270 592f2621 4b592f21 264b592f 264b592f  Y/&!KY/!&KY/&KY/
 0280 26214b59 2f212621 4b592f21 264b592f  &!KY/!&!KY/!&KY/
 0290 26214b59 2f21264b 592f0309 02010121  &!KY/!&KY/.....!
 02a0 2f2f3d59 2f3d2127 2f2f592f 3d262f2f  //=Y/=!'//Y/=&//
 02b0 592f3d26 2f2f592f 3d262f2f 592f3d26  Y/=&//Y/=&//Y/=&
 02c0 2f2f592f 3d242f2f 592f3d23 2f2f592f  //Y/=$//Y/=#//Y/
 02d0 3d232f2f 592f3d23 2f2f592f 3d232f2f  =#//Y/=#//Y/=#//
 02e0 592f3d03 10020101 214b592f 21037202  Y/=.....!KY/!.r.
 02f0 0101214b 592f211b 214b592f 21020100  ..!KY/!.!KY/!...
 0300 0101                                 ..              
Contents of section .debug_str:
 0000 6c765f6c 6162656c 5f637265 6174655f  lv_label_create_
 0010 63006c76 5f77696e 5f637265 6174655f  c.lv_win_create_
 0020 6300474e 55204331 3120372e 352e3020  c.GNU C11 7.5.0 
 0030 2d6d3332 202d6d74 756e653d 67656e65  -m32 -mtune=gene
 0040 72696320 2d6d6172 63683d78 38362d36  ric -march=x86-6
 0050 34202d67 202d666e 6f2d6275 696c7469  4 -g -fno-builti
 0060 6e202d66 6e6f2d73 7461636b 2d70726f  n -fno-stack-pro
 0070 74656374 6f72005f 466c6f61 74313238  tector._Float128
 0080 0073686f 72742075 6e736967 6e656420  .short unsigned 
 0090 696e7400 4d6f7573 65002f72 756e2f6d  int.Mouse./run/m
 00a0 65646961 2f77696e 642f536f 66747761  edia/wind/Softwa
 00b0 72652f62 6f6f6b2f 43532f4f 70657261  re/book/CS/Opera
 00c0 74696e67 5379732f 6c61622f 65787038  tingSys/lab/exp8
 00d0 2d323032 302f6d69 6e694f53 2d76312e  -2020/miniOS-v1.
 00e0 332e322f 75736572 00526567 69737465  3.2/user.Registe
 00f0 7243616c 6c626163 6b004755 495f5479  rCallback.GUI_Ty
 0100 70650050 32505f41 00756e73 69676e65  pe.P2P_A.unsigne
 0110 64206368 6172006d 656d7365 74005f5f  d char.memset.__
 0120 75696e74 31365f74 004b6579 626f6172  uint16_t.Keyboar
 0130 64005f5f 75696e74 33325f74 00503250  d.__uint32_t.P2P
 0140 5f530067 75695f64 61746100 6d61696e  _S.gui_data.main
 0150 006c6f6e 67206c6f 6e672075 6e736967  .long long unsig
 0160 6e656420 696e7400 4950435f 4d534700  ned int.IPC_MSG.
 0170 6c765f6f 626a5f73 65745f79 5f63006c  lv_obj_set_y_c.l
 0180 6f6e6720 6c6f6e67 20696e74 00636c69  ong long int.cli
 0190 656e742e 63007479 70650073 686f7274  ent.c.type.short
 01a0 20696e74 00427574 746f6e00 57696e64   int.Button.Wind
 01b0 6f770061 72677600 6c765f62 746e5f63  ow.argv.lv_btn_c
 01c0 72656174 655f6300 6c765f74 65787461  reate_c.lv_texta
 01d0 7265615f 63726561 74655f63 00546573  rea_create_c.Tes
 01e0 74005369 676e616c 006c6f6e 6720646f  t.Signal.long do
 01f0 75626c65 00426f61 72646361 73740046  uble.Boardcast.F
 0200 756e6374 696f6e00 6172675f 30006172  unction.arg_0.ar
 0210 675f3100 6c765f6f 626a5f73 65745f78  g_1.lv_obj_set_x
 0220 5f63005f 66756e00 68616e64 6c657200  _c._fun.handler.
 0230 6970632f 7369676e 616c2e63 00534947  ipc/signal.c.SIG
 0240 5f545950 45005369 67616374 696f6e00  _TYPE.Sigaction.
 0250 7369675f 72657475 726e0073 69676163  sig_return.sigac
 0260 74696f6e 00534947 5f53454e 44004861  tion.SIG_SEND.Ha
 0270 6e646c65 72005349 475f5245 5455524e  ndler.SIG_RETURN
 0280 00                                   .               

Disassembly of section .text:

080480c0 <lv_btn_create_c>:
 80480c0:	55                   	push   %ebp
 80480c1:	89 e5                	mov    %esp,%ebp
 80480c3:	57                   	push   %edi
 80480c4:	53                   	push   %ebx
 80480c5:	83 ec 30             	sub    $0x30,%esp
 80480c8:	e8 f8 03 00 00       	call   80484c5 <__x86.get_pc_thunk.bx>
 80480cd:	81 c3 33 1f 00 00    	add    $0x1f33,%ebx
 80480d3:	8d 55 c8             	lea    -0x38(%ebp),%edx
 80480d6:	b8 00 00 00 00       	mov    $0x0,%eax
 80480db:	b9 0c 00 00 00       	mov    $0xc,%ecx
 80480e0:	89 d7                	mov    %edx,%edi
 80480e2:	f3 ab                	rep stos %eax,%es:(%edi)
 80480e4:	66 c7 45 c8 ff ff    	movw   $0xffff,-0x38(%ebp)
 80480ea:	66 c7 45 ca 04 00    	movw   $0x4,-0x36(%ebp)
 80480f0:	c7 45 cc 02 00 00 00 	movl   $0x2,-0x34(%ebp)
 80480f7:	c7 45 d0 04 00 00 00 	movl   $0x4,-0x30(%ebp)
 80480fe:	c7 45 d8 02 00 00 00 	movl   $0x2,-0x28(%ebp)
 8048105:	8b 45 08             	mov    0x8(%ebp),%eax
 8048108:	89 45 dc             	mov    %eax,-0x24(%ebp)
 804810b:	8b 45 0c             	mov    0xc(%ebp),%eax
 804810e:	89 45 e0             	mov    %eax,-0x20(%ebp)
 8048111:	83 ec 0c             	sub    $0xc,%esp
 8048114:	8d 45 c8             	lea    -0x38(%ebp),%eax
 8048117:	50                   	push   %eax
 8048118:	e8 25 06 00 00       	call   8048742 <send>
 804811d:	83 c4 10             	add    $0x10,%esp
 8048120:	8d 65 f8             	lea    -0x8(%ebp),%esp
 8048123:	5b                   	pop    %ebx
 8048124:	5f                   	pop    %edi
 8048125:	5d                   	pop    %ebp
 8048126:	c3                   	ret    

08048127 <lv_obj_set_y_c>:
 8048127:	55                   	push   %ebp
 8048128:	89 e5                	mov    %esp,%ebp
 804812a:	57                   	push   %edi
 804812b:	53                   	push   %ebx
 804812c:	83 ec 30             	sub    $0x30,%esp
 804812f:	e8 91 03 00 00       	call   80484c5 <__x86.get_pc_thunk.bx>
 8048134:	81 c3 cc 1e 00 00    	add    $0x1ecc,%ebx
 804813a:	8d 55 c8             	lea    -0x38(%ebp),%edx
 804813d:	b8 00 00 00 00       	mov    $0x0,%eax
 8048142:	b9 0c 00 00 00       	mov    $0xc,%ecx
 8048147:	89 d7                	mov    %edx,%edi
 8048149:	f3 ab                	rep stos %eax,%es:(%edi)
 804814b:	66 c7 45 c8 ff ff    	movw   $0xffff,-0x38(%ebp)
 8048151:	66 c7 45 ca 04 00    	movw   $0x4,-0x36(%ebp)
 8048157:	c7 45 cc 01 00 00 00 	movl   $0x1,-0x34(%ebp)
 804815e:	c7 45 d0 04 00 00 00 	movl   $0x4,-0x30(%ebp)
 8048165:	c7 45 d4 01 00 00 00 	movl   $0x1,-0x2c(%ebp)
 804816c:	c7 45 d8 02 00 00 00 	movl   $0x2,-0x28(%ebp)
 8048173:	8b 45 08             	mov    0x8(%ebp),%eax
 8048176:	89 45 dc             	mov    %eax,-0x24(%ebp)
 8048179:	8b 45 0c             	mov    0xc(%ebp),%eax
 804817c:	89 45 e0             	mov    %eax,-0x20(%ebp)
 804817f:	83 ec 0c             	sub    $0xc,%esp
 8048182:	8d 45 c8             	lea    -0x38(%ebp),%eax
 8048185:	50                   	push   %eax
 8048186:	e8 b7 05 00 00       	call   8048742 <send>
 804818b:	83 c4 10             	add    $0x10,%esp
 804818e:	8d 65 f8             	lea    -0x8(%ebp),%esp
 8048191:	5b                   	pop    %ebx
 8048192:	5f                   	pop    %edi
 8048193:	5d                   	pop    %ebp
 8048194:	c3                   	ret    

08048195 <lv_textarea_create_c>:
 8048195:	55                   	push   %ebp
 8048196:	89 e5                	mov    %esp,%ebp
 8048198:	57                   	push   %edi
 8048199:	53                   	push   %ebx
 804819a:	83 ec 30             	sub    $0x30,%esp
 804819d:	e8 23 03 00 00       	call   80484c5 <__x86.get_pc_thunk.bx>
 80481a2:	81 c3 5e 1e 00 00    	add    $0x1e5e,%ebx
 80481a8:	8d 55 c8             	lea    -0x38(%ebp),%edx
 80481ab:	b8 00 00 00 00       	mov    $0x0,%eax
 80481b0:	b9 0c 00 00 00       	mov    $0xc,%ecx
 80481b5:	89 d7                	mov    %edx,%edi
 80481b7:	f3 ab                	rep stos %eax,%es:(%edi)
 80481b9:	66 c7 45 c8 ff ff    	movw   $0xffff,-0x38(%ebp)
 80481bf:	66 c7 45 ca 04 00    	movw   $0x4,-0x36(%ebp)
 80481c5:	c7 45 cc 02 00 00 00 	movl   $0x2,-0x34(%ebp)
 80481cc:	c7 45 d0 04 00 00 00 	movl   $0x4,-0x30(%ebp)
 80481d3:	c7 45 d4 02 00 00 00 	movl   $0x2,-0x2c(%ebp)
 80481da:	c7 45 d8 02 00 00 00 	movl   $0x2,-0x28(%ebp)
 80481e1:	8b 45 08             	mov    0x8(%ebp),%eax
 80481e4:	89 45 dc             	mov    %eax,-0x24(%ebp)
 80481e7:	8b 45 0c             	mov    0xc(%ebp),%eax
 80481ea:	89 45 e0             	mov    %eax,-0x20(%ebp)
 80481ed:	83 ec 0c             	sub    $0xc,%esp
 80481f0:	8d 45 c8             	lea    -0x38(%ebp),%eax
 80481f3:	50                   	push   %eax
 80481f4:	e8 49 05 00 00       	call   8048742 <send>
 80481f9:	83 c4 10             	add    $0x10,%esp
 80481fc:	8d 65 f8             	lea    -0x8(%ebp),%esp
 80481ff:	5b                   	pop    %ebx
 8048200:	5f                   	pop    %edi
 8048201:	5d                   	pop    %ebp
 8048202:	c3                   	ret    

08048203 <lv_obj_set_x_c>:
 8048203:	55                   	push   %ebp
 8048204:	89 e5                	mov    %esp,%ebp
 8048206:	57                   	push   %edi
 8048207:	53                   	push   %ebx
 8048208:	83 ec 30             	sub    $0x30,%esp
 804820b:	e8 b5 02 00 00       	call   80484c5 <__x86.get_pc_thunk.bx>
 8048210:	81 c3 f0 1d 00 00    	add    $0x1df0,%ebx
 8048216:	8d 55 c8             	lea    -0x38(%ebp),%edx
 8048219:	b8 00 00 00 00       	mov    $0x0,%eax
 804821e:	b9 0c 00 00 00       	mov    $0xc,%ecx
 8048223:	89 d7                	mov    %edx,%edi
 8048225:	f3 ab                	rep stos %eax,%es:(%edi)
 8048227:	66 c7 45 c8 ff ff    	movw   $0xffff,-0x38(%ebp)
 804822d:	66 c7 45 ca 04 00    	movw   $0x4,-0x36(%ebp)
 8048233:	c7 45 cc 01 00 00 00 	movl   $0x1,-0x34(%ebp)
 804823a:	c7 45 d0 04 00 00 00 	movl   $0x4,-0x30(%ebp)
 8048241:	c7 45 d4 03 00 00 00 	movl   $0x3,-0x2c(%ebp)
 8048248:	c7 45 d8 02 00 00 00 	movl   $0x2,-0x28(%ebp)
 804824f:	8b 45 08             	mov    0x8(%ebp),%eax
 8048252:	89 45 dc             	mov    %eax,-0x24(%ebp)
 8048255:	8b 45 0c             	mov    0xc(%ebp),%eax
 8048258:	89 45 e0             	mov    %eax,-0x20(%ebp)
 804825b:	83 ec 0c             	sub    $0xc,%esp
 804825e:	8d 45 c8             	lea    -0x38(%ebp),%eax
 8048261:	50                   	push   %eax
 8048262:	e8 db 04 00 00       	call   8048742 <send>
 8048267:	83 c4 10             	add    $0x10,%esp
 804826a:	8d 65 f8             	lea    -0x8(%ebp),%esp
 804826d:	5b                   	pop    %ebx
 804826e:	5f                   	pop    %edi
 804826f:	5d                   	pop    %ebp
 8048270:	c3                   	ret    

08048271 <lv_label_create_c>:
 8048271:	55                   	push   %ebp
 8048272:	89 e5                	mov    %esp,%ebp
 8048274:	57                   	push   %edi
 8048275:	53                   	push   %ebx
 8048276:	83 ec 30             	sub    $0x30,%esp
 8048279:	e8 47 02 00 00       	call   80484c5 <__x86.get_pc_thunk.bx>
 804827e:	81 c3 82 1d 00 00    	add    $0x1d82,%ebx
 8048284:	8d 55 c8             	lea    -0x38(%ebp),%edx
 8048287:	b8 00 00 00 00       	mov    $0x0,%eax
 804828c:	b9 0c 00 00 00       	mov    $0xc,%ecx
 8048291:	89 d7                	mov    %edx,%edi
 8048293:	f3 ab                	rep stos %eax,%es:(%edi)
 8048295:	66 c7 45 c8 ff ff    	movw   $0xffff,-0x38(%ebp)
 804829b:	66 c7 45 ca 04 00    	movw   $0x4,-0x36(%ebp)
 80482a1:	c7 45 cc 02 00 00 00 	movl   $0x2,-0x34(%ebp)
 80482a8:	c7 45 d0 04 00 00 00 	movl   $0x4,-0x30(%ebp)
 80482af:	c7 45 d4 04 00 00 00 	movl   $0x4,-0x2c(%ebp)
 80482b6:	c7 45 d8 02 00 00 00 	movl   $0x2,-0x28(%ebp)
 80482bd:	8b 45 08             	mov    0x8(%ebp),%eax
 80482c0:	89 45 dc             	mov    %eax,-0x24(%ebp)
 80482c3:	8b 45 0c             	mov    0xc(%ebp),%eax
 80482c6:	89 45 e0             	mov    %eax,-0x20(%ebp)
 80482c9:	83 ec 0c             	sub    $0xc,%esp
 80482cc:	8d 45 c8             	lea    -0x38(%ebp),%eax
 80482cf:	50                   	push   %eax
 80482d0:	e8 6d 04 00 00       	call   8048742 <send>
 80482d5:	83 c4 10             	add    $0x10,%esp
 80482d8:	8d 65 f8             	lea    -0x8(%ebp),%esp
 80482db:	5b                   	pop    %ebx
 80482dc:	5f                   	pop    %edi
 80482dd:	5d                   	pop    %ebp
 80482de:	c3                   	ret    

080482df <lv_win_create_c>:
 80482df:	55                   	push   %ebp
 80482e0:	89 e5                	mov    %esp,%ebp
 80482e2:	57                   	push   %edi
 80482e3:	53                   	push   %ebx
 80482e4:	83 ec 30             	sub    $0x30,%esp
 80482e7:	e8 d9 01 00 00       	call   80484c5 <__x86.get_pc_thunk.bx>
 80482ec:	81 c3 14 1d 00 00    	add    $0x1d14,%ebx
 80482f2:	8d 55 c8             	lea    -0x38(%ebp),%edx
 80482f5:	b8 00 00 00 00       	mov    $0x0,%eax
 80482fa:	b9 0c 00 00 00       	mov    $0xc,%ecx
 80482ff:	89 d7                	mov    %edx,%edi
 8048301:	f3 ab                	rep stos %eax,%es:(%edi)
 8048303:	66 c7 45 c8 ff ff    	movw   $0xffff,-0x38(%ebp)
 8048309:	66 c7 45 ca 04 00    	movw   $0x4,-0x36(%ebp)
 804830f:	c7 45 cc 02 00 00 00 	movl   $0x2,-0x34(%ebp)
 8048316:	c7 45 d0 04 00 00 00 	movl   $0x4,-0x30(%ebp)
 804831d:	c7 45 d4 05 00 00 00 	movl   $0x5,-0x2c(%ebp)
 8048324:	c7 45 d8 02 00 00 00 	movl   $0x2,-0x28(%ebp)
 804832b:	8b 45 08             	mov    0x8(%ebp),%eax
 804832e:	89 45 dc             	mov    %eax,-0x24(%ebp)
 8048331:	8b 45 0c             	mov    0xc(%ebp),%eax
 8048334:	89 45 e0             	mov    %eax,-0x20(%ebp)
 8048337:	83 ec 0c             	sub    $0xc,%esp
 804833a:	8d 45 c8             	lea    -0x38(%ebp),%eax
 804833d:	50                   	push   %eax
 804833e:	e8 ff 03 00 00       	call   8048742 <send>
 8048343:	83 c4 10             	add    $0x10,%esp
 8048346:	8d 65 f8             	lea    -0x8(%ebp),%esp
 8048349:	5b                   	pop    %ebx
 804834a:	5f                   	pop    %edi
 804834b:	5d                   	pop    %ebp
 804834c:	c3                   	ret    

0804834d <Test>:
 804834d:	55                   	push   %ebp
 804834e:	89 e5                	mov    %esp,%ebp
 8048350:	57                   	push   %edi
 8048351:	83 ec 40             	sub    $0x40,%esp
 8048354:	e8 68 01 00 00       	call   80484c1 <__x86.get_pc_thunk.ax>
 8048359:	05 a7 1c 00 00       	add    $0x1ca7,%eax
 804835e:	8d 55 c8             	lea    -0x38(%ebp),%edx
 8048361:	b8 00 00 00 00       	mov    $0x0,%eax
 8048366:	b9 0c 00 00 00       	mov    $0xc,%ecx
 804836b:	89 d7                	mov    %edx,%edi
 804836d:	f3 ab                	rep stos %eax,%es:(%edi)
 804836f:	66 c7 45 c8 ff ff    	movw   $0xffff,-0x38(%ebp)
 8048375:	66 c7 45 ca 04 00    	movw   $0x4,-0x36(%ebp)
 804837b:	c7 45 cc 01 00 00 00 	movl   $0x1,-0x34(%ebp)
 8048382:	8d 45 c8             	lea    -0x38(%ebp),%eax
 8048385:	83 c0 08             	add    $0x8,%eax
 8048388:	89 45 f8             	mov    %eax,-0x8(%ebp)
 804838b:	8b 45 f8             	mov    -0x8(%ebp),%eax
 804838e:	c7 00 02 00 00 00    	movl   $0x2,(%eax)
 8048394:	8b 45 f8             	mov    -0x8(%ebp),%eax
 8048397:	c7 40 04 fa 00 00 00 	movl   $0xfa,0x4(%eax)
 804839e:	8b 45 f8             	mov    -0x8(%ebp),%eax
 80483a1:	c7 40 08 fa 00 00 00 	movl   $0xfa,0x8(%eax)
 80483a8:	90                   	nop
 80483a9:	83 c4 40             	add    $0x40,%esp
 80483ac:	5f                   	pop    %edi
 80483ad:	5d                   	pop    %ebp
 80483ae:	c3                   	ret    

080483af <main>:
 80483af:	8d 4c 24 04          	lea    0x4(%esp),%ecx
 80483b3:	83 e4 f0             	and    $0xfffffff0,%esp
 80483b6:	ff 71 fc             	pushl  -0x4(%ecx)
 80483b9:	55                   	push   %ebp
 80483ba:	89 e5                	mov    %esp,%ebp
 80483bc:	57                   	push   %edi
 80483bd:	53                   	push   %ebx
 80483be:	51                   	push   %ecx
 80483bf:	83 ec 4c             	sub    $0x4c,%esp
 80483c2:	e8 fe 00 00 00       	call   80484c5 <__x86.get_pc_thunk.bx>
 80483c7:	81 c3 39 1c 00 00    	add    $0x1c39,%ebx
 80483cd:	8d 55 ac             	lea    -0x54(%ebp),%edx
 80483d0:	b8 00 00 00 00       	mov    $0x0,%eax
 80483d5:	b9 0c 00 00 00       	mov    $0xc,%ecx
 80483da:	89 d7                	mov    %edx,%edi
 80483dc:	f3 ab                	rep stos %eax,%es:(%edi)
 80483de:	66 c7 45 ac ff ff    	movw   $0xffff,-0x54(%ebp)
 80483e4:	66 c7 45 ae 04 00    	movw   $0x4,-0x52(%ebp)
 80483ea:	c7 45 b0 02 00 00 00 	movl   $0x2,-0x50(%ebp)
 80483f1:	8d 45 ac             	lea    -0x54(%ebp),%eax
 80483f4:	83 c0 08             	add    $0x8,%eax
 80483f7:	89 45 e0             	mov    %eax,-0x20(%ebp)
 80483fa:	8b 45 e0             	mov    -0x20(%ebp),%eax
 80483fd:	c7 00 02 00 00 00    	movl   $0x2,(%eax)
 8048403:	8b 45 e0             	mov    -0x20(%ebp),%eax
 8048406:	c7 40 04 32 00 00 00 	movl   $0x32,0x4(%eax)
 804840d:	8b 45 e0             	mov    -0x20(%ebp),%eax
 8048410:	c7 40 08 32 00 00 00 	movl   $0x32,0x8(%eax)
 8048417:	83 ec 0c             	sub    $0xc,%esp
 804841a:	8d 45 ac             	lea    -0x54(%ebp),%eax
 804841d:	50                   	push   %eax
 804841e:	e8 1f 03 00 00       	call   8048742 <send>
 8048423:	83 c4 10             	add    $0x10,%esp
 8048426:	83 ec 0c             	sub    $0xc,%esp
 8048429:	8d 45 ac             	lea    -0x54(%ebp),%eax
 804842c:	50                   	push   %eax
 804842d:	e8 1e 03 00 00       	call   8048750 <recv>
 8048432:	83 c4 10             	add    $0x10,%esp
 8048435:	8b 45 b4             	mov    -0x4c(%ebp),%eax
 8048438:	89 45 dc             	mov    %eax,-0x24(%ebp)
 804843b:	83 ec 08             	sub    $0x8,%esp
 804843e:	68 90 01 00 00       	push   $0x190
 8048443:	ff 75 dc             	pushl  -0x24(%ebp)
 8048446:	e8 b8 fd ff ff       	call   8048203 <lv_obj_set_x_c>
 804844b:	83 c4 10             	add    $0x10,%esp
 804844e:	83 ec 08             	sub    $0x8,%esp
 8048451:	68 90 01 00 00       	push   $0x190
 8048456:	ff 75 dc             	pushl  -0x24(%ebp)
 8048459:	e8 c9 fc ff ff       	call   8048127 <lv_obj_set_y_c>
 804845e:	83 c4 10             	add    $0x10,%esp
 8048461:	83 ec 04             	sub    $0x4,%esp
 8048464:	6a 30                	push   $0x30
 8048466:	6a 00                	push   $0x0
 8048468:	8d 45 ac             	lea    -0x54(%ebp),%eax
 804846b:	50                   	push   %eax
 804846c:	e8 f8 00 00 00       	call   8048569 <memset>
 8048471:	83 c4 10             	add    $0x10,%esp
 8048474:	66 c7 45 ae 04 00    	movw   $0x4,-0x52(%ebp)
 804847a:	c7 45 b0 01 00 00 00 	movl   $0x1,-0x50(%ebp)
 8048481:	c7 45 b4 05 00 00 00 	movl   $0x5,-0x4c(%ebp)
 8048488:	c7 c0 c9 84 04 08    	mov    $0x80484c9,%eax
 804848e:	89 45 b8             	mov    %eax,-0x48(%ebp)
 8048491:	8d 83 4d e3 ff ff    	lea    -0x1cb3(%ebx),%eax
 8048497:	89 45 bc             	mov    %eax,-0x44(%ebp)
 804849a:	83 ec 0c             	sub    $0xc,%esp
 804849d:	8d 45 ac             	lea    -0x54(%ebp),%eax
 80484a0:	50                   	push   %eax
 80484a1:	e8 9c 02 00 00       	call   8048742 <send>
 80484a6:	83 c4 10             	add    $0x10,%esp
 80484a9:	c7 45 e4 00 00 00 00 	movl   $0x0,-0x1c(%ebp)
 80484b0:	eb 04                	jmp    80484b6 <main+0x107>
 80484b2:	83 45 e4 01          	addl   $0x1,-0x1c(%ebp)
 80484b6:	81 7d e4 9f 86 01 00 	cmpl   $0x1869f,-0x1c(%ebp)
 80484bd:	7e f3                	jle    80484b2 <main+0x103>
 80484bf:	eb e8                	jmp    80484a9 <main+0xfa>

080484c1 <__x86.get_pc_thunk.ax>:
 80484c1:	8b 04 24             	mov    (%esp),%eax
 80484c4:	c3                   	ret    

080484c5 <__x86.get_pc_thunk.bx>:
 80484c5:	8b 1c 24             	mov    (%esp),%ebx
 80484c8:	c3                   	ret    

080484c9 <Handler>:
 80484c9:	55                   	push   %ebp
 80484ca:	89 e5                	mov    %esp,%ebp
 80484cc:	57                   	push   %edi
 80484cd:	53                   	push   %ebx
 80484ce:	83 ec 40             	sub    $0x40,%esp
 80484d1:	e8 ef ff ff ff       	call   80484c5 <__x86.get_pc_thunk.bx>
 80484d6:	81 c3 2a 1b 00 00    	add    $0x1b2a,%ebx
 80484dc:	8b 45 08             	mov    0x8(%ebp),%eax
 80484df:	89 45 f4             	mov    %eax,-0xc(%ebp)
 80484e2:	8b 45 f4             	mov    -0xc(%ebp),%eax
 80484e5:	ff d0                	call   *%eax
 80484e7:	8d 55 c4             	lea    -0x3c(%ebp),%edx
 80484ea:	b8 00 00 00 00       	mov    $0x0,%eax
 80484ef:	b9 0c 00 00 00       	mov    $0xc,%ecx
 80484f4:	89 d7                	mov    %edx,%edi
 80484f6:	f3 ab                	rep stos %eax,%es:(%edi)
 80484f8:	66 c7 45 c4 ff ff    	movw   $0xffff,-0x3c(%ebp)
 80484fe:	66 c7 45 c6 ff ff    	movw   $0xffff,-0x3a(%ebp)
 8048504:	c7 45 c8 03 00 00 00 	movl   $0x3,-0x38(%ebp)
 804850b:	c7 45 cc 01 00 00 00 	movl   $0x1,-0x34(%ebp)
 8048512:	83 ec 0c             	sub    $0xc,%esp
 8048515:	8d 45 c4             	lea    -0x3c(%ebp),%eax
 8048518:	50                   	push   %eax
 8048519:	e8 24 02 00 00       	call   8048742 <send>
 804851e:	83 c4 10             	add    $0x10,%esp
 8048521:	90                   	nop
 8048522:	8d 65 f8             	lea    -0x8(%ebp),%esp
 8048525:	5b                   	pop    %ebx
 8048526:	5f                   	pop    %edi
 8048527:	5d                   	pop    %ebp
 8048528:	c3                   	ret    
 8048529:	66 90                	xchg   %ax,%ax
 804852b:	66 90                	xchg   %ax,%ax
 804852d:	66 90                	xchg   %ax,%ax
 804852f:	90                   	nop

08048530 <_start>:
 8048530:	50                   	push   %eax
 8048531:	51                   	push   %ecx
 8048532:	e8 78 fe ff ff       	call   80483af <main>
 8048537:	f4                   	hlt    
 8048538:	66 90                	xchg   %ax,%ax
 804853a:	66 90                	xchg   %ax,%ax
 804853c:	66 90                	xchg   %ax,%ax
 804853e:	66 90                	xchg   %ax,%ax

08048540 <memcpy>:
 8048540:	55                   	push   %ebp
 8048541:	89 e5                	mov    %esp,%ebp
 8048543:	56                   	push   %esi
 8048544:	57                   	push   %edi
 8048545:	51                   	push   %ecx
 8048546:	8b 7d 08             	mov    0x8(%ebp),%edi
 8048549:	8b 75 0c             	mov    0xc(%ebp),%esi
 804854c:	8b 4d 10             	mov    0x10(%ebp),%ecx

0804854f <memcpy.1>:
 804854f:	83 f9 00             	cmp    $0x0,%ecx
 8048552:	74 0b                	je     804855f <memcpy.2>
 8048554:	3e 8a 06             	mov    %ds:(%esi),%al
 8048557:	46                   	inc    %esi
 8048558:	26 88 07             	mov    %al,%es:(%edi)
 804855b:	47                   	inc    %edi
 804855c:	49                   	dec    %ecx
 804855d:	eb f0                	jmp    804854f <memcpy.1>

0804855f <memcpy.2>:
 804855f:	8b 45 08             	mov    0x8(%ebp),%eax
 8048562:	59                   	pop    %ecx
 8048563:	5f                   	pop    %edi
 8048564:	5e                   	pop    %esi
 8048565:	89 ec                	mov    %ebp,%esp
 8048567:	5d                   	pop    %ebp
 8048568:	c3                   	ret    

08048569 <memset>:
 8048569:	55                   	push   %ebp
 804856a:	89 e5                	mov    %esp,%ebp
 804856c:	56                   	push   %esi
 804856d:	57                   	push   %edi
 804856e:	51                   	push   %ecx
 804856f:	8b 7d 08             	mov    0x8(%ebp),%edi
 8048572:	8b 55 0c             	mov    0xc(%ebp),%edx
 8048575:	8b 4d 10             	mov    0x10(%ebp),%ecx

08048578 <memset.1>:
 8048578:	83 f9 00             	cmp    $0x0,%ecx
 804857b:	74 06                	je     8048583 <memset.2>
 804857d:	88 17                	mov    %dl,(%edi)
 804857f:	47                   	inc    %edi
 8048580:	49                   	dec    %ecx
 8048581:	eb f5                	jmp    8048578 <memset.1>

08048583 <memset.2>:
 8048583:	59                   	pop    %ecx
 8048584:	5f                   	pop    %edi
 8048585:	5e                   	pop    %esi
 8048586:	89 ec                	mov    %ebp,%esp
 8048588:	5d                   	pop    %ebp
 8048589:	c3                   	ret    

0804858a <strcpy>:
 804858a:	55                   	push   %ebp
 804858b:	89 e5                	mov    %esp,%ebp
 804858d:	8b 75 0c             	mov    0xc(%ebp),%esi
 8048590:	8b 7d 08             	mov    0x8(%ebp),%edi

08048593 <strcpy.1>:
 8048593:	8a 06                	mov    (%esi),%al
 8048595:	46                   	inc    %esi
 8048596:	88 07                	mov    %al,(%edi)
 8048598:	47                   	inc    %edi
 8048599:	3c 00                	cmp    $0x0,%al
 804859b:	75 f6                	jne    8048593 <strcpy.1>
 804859d:	8b 45 08             	mov    0x8(%ebp),%eax
 80485a0:	5d                   	pop    %ebp
 80485a1:	c3                   	ret    

080485a2 <strlen>:
 80485a2:	55                   	push   %ebp
 80485a3:	89 e5                	mov    %esp,%ebp
 80485a5:	b8 00 00 00 00       	mov    $0x0,%eax
 80485aa:	8b 75 08             	mov    0x8(%ebp),%esi

080485ad <strlen.1>:
 80485ad:	80 3e 00             	cmpb   $0x0,(%esi)
 80485b0:	74 04                	je     80485b6 <strlen.2>
 80485b2:	46                   	inc    %esi
 80485b3:	40                   	inc    %eax
 80485b4:	eb f7                	jmp    80485ad <strlen.1>

080485b6 <strlen.2>:
 80485b6:	5d                   	pop    %ebp
 80485b7:	c3                   	ret    
 80485b8:	66 90                	xchg   %ax,%ax
 80485ba:	66 90                	xchg   %ax,%ax
 80485bc:	66 90                	xchg   %ax,%ax
 80485be:	66 90                	xchg   %ax,%ax

080485c0 <get_ticks>:
 80485c0:	b8 00 00 00 00       	mov    $0x0,%eax
 80485c5:	cd 90                	int    $0x90
 80485c7:	c3                   	ret    

080485c8 <get_pid>:
 80485c8:	b8 01 00 00 00       	mov    $0x1,%eax
 80485cd:	cd 90                	int    $0x90
 80485cf:	c3                   	ret    

080485d0 <kmalloc>:
 80485d0:	8b 5c 24 04          	mov    0x4(%esp),%ebx
 80485d4:	b8 02 00 00 00       	mov    $0x2,%eax
 80485d9:	cd 90                	int    $0x90
 80485db:	c3                   	ret    

080485dc <kmalloc_4k>:
 80485dc:	8b 5c 24 04          	mov    0x4(%esp),%ebx
 80485e0:	b8 03 00 00 00       	mov    $0x3,%eax
 80485e5:	cd 90                	int    $0x90
 80485e7:	c3                   	ret    

080485e8 <malloc>:
 80485e8:	53                   	push   %ebx
 80485e9:	8b 5c 24 08          	mov    0x8(%esp),%ebx
 80485ed:	b8 04 00 00 00       	mov    $0x4,%eax
 80485f2:	cd 90                	int    $0x90
 80485f4:	5b                   	pop    %ebx
 80485f5:	c3                   	ret    

080485f6 <malloc_4k>:
 80485f6:	8b 5c 24 04          	mov    0x4(%esp),%ebx
 80485fa:	b8 05 00 00 00       	mov    $0x5,%eax
 80485ff:	cd 90                	int    $0x90
 8048601:	c3                   	ret    

08048602 <free>:
 8048602:	8b 5c 24 04          	mov    0x4(%esp),%ebx
 8048606:	b8 06 00 00 00       	mov    $0x6,%eax
 804860b:	cd 90                	int    $0x90
 804860d:	c3                   	ret    

0804860e <free_4k>:
 804860e:	8b 5c 24 04          	mov    0x4(%esp),%ebx
 8048612:	b8 07 00 00 00       	mov    $0x7,%eax
 8048617:	cd 90                	int    $0x90
 8048619:	c3                   	ret    

0804861a <fork>:
 804861a:	b8 08 00 00 00       	mov    $0x8,%eax
 804861f:	cd 90                	int    $0x90
 8048621:	c3                   	ret    

08048622 <pthread>:
 8048622:	53                   	push   %ebx
 8048623:	8b 5c 24 08          	mov    0x8(%esp),%ebx
 8048627:	b8 09 00 00 00       	mov    $0x9,%eax
 804862c:	cd 90                	int    $0x90
 804862e:	5b                   	pop    %ebx
 804862f:	c3                   	ret    

08048630 <udisp_int>:
 8048630:	8b 5c 24 04          	mov    0x4(%esp),%ebx
 8048634:	b8 0a 00 00 00       	mov    $0xa,%eax
 8048639:	cd 90                	int    $0x90
 804863b:	c3                   	ret    

0804863c <udisp_str>:
 804863c:	8b 5c 24 04          	mov    0x4(%esp),%ebx
 8048640:	b8 0b 00 00 00       	mov    $0xb,%eax
 8048645:	cd 90                	int    $0x90
 8048647:	c3                   	ret    

08048648 <exec>:
 8048648:	53                   	push   %ebx
 8048649:	8b 5c 24 08          	mov    0x8(%esp),%ebx
 804864d:	b8 0c 00 00 00       	mov    $0xc,%eax
 8048652:	cd 90                	int    $0x90
 8048654:	5b                   	pop    %ebx
 8048655:	c3                   	ret    

08048656 <yield>:
 8048656:	53                   	push   %ebx
 8048657:	8b 5c 24 08          	mov    0x8(%esp),%ebx
 804865b:	b8 0d 00 00 00       	mov    $0xd,%eax
 8048660:	cd 90                	int    $0x90
 8048662:	5b                   	pop    %ebx
 8048663:	c3                   	ret    

08048664 <sleep>:
 8048664:	8b 5c 24 04          	mov    0x4(%esp),%ebx
 8048668:	b8 0e 00 00 00       	mov    $0xe,%eax
 804866d:	cd 90                	int    $0x90
 804866f:	c3                   	ret    

08048670 <print_E>:
 8048670:	53                   	push   %ebx
 8048671:	8b 5c 24 08          	mov    0x8(%esp),%ebx
 8048675:	b8 0f 00 00 00       	mov    $0xf,%eax
 804867a:	cd 90                	int    $0x90
 804867c:	5b                   	pop    %ebx
 804867d:	c3                   	ret    

0804867e <print_F>:
 804867e:	8b 5c 24 04          	mov    0x4(%esp),%ebx
 8048682:	b8 10 00 00 00       	mov    $0x10,%eax
 8048687:	cd 90                	int    $0x90
 8048689:	c3                   	ret    

0804868a <open>:
 804868a:	53                   	push   %ebx
 804868b:	6a 02                	push   $0x2
 804868d:	89 e3                	mov    %esp,%ebx
 804868f:	83 c3 04             	add    $0x4,%ebx
 8048692:	b8 11 00 00 00       	mov    $0x11,%eax
 8048697:	cd 90                	int    $0x90
 8048699:	83 c4 04             	add    $0x4,%esp
 804869c:	5b                   	pop    %ebx
 804869d:	c3                   	ret    

0804869e <close>:
 804869e:	6a 01                	push   $0x1
 80486a0:	89 e3                	mov    %esp,%ebx
 80486a2:	b8 12 00 00 00       	mov    $0x12,%eax
 80486a7:	cd 90                	int    $0x90
 80486a9:	83 c4 04             	add    $0x4,%esp
 80486ac:	c3                   	ret    

080486ad <read>:
 80486ad:	6a 03                	push   $0x3
 80486af:	89 e3                	mov    %esp,%ebx
 80486b1:	b8 13 00 00 00       	mov    $0x13,%eax
 80486b6:	cd 90                	int    $0x90
 80486b8:	83 c4 04             	add    $0x4,%esp
 80486bb:	c3                   	ret    

080486bc <write>:
 80486bc:	6a 03                	push   $0x3
 80486be:	89 e3                	mov    %esp,%ebx
 80486c0:	b8 14 00 00 00       	mov    $0x14,%eax
 80486c5:	cd 90                	int    $0x90
 80486c7:	83 c4 04             	add    $0x4,%esp
 80486ca:	c3                   	ret    

080486cb <lseek>:
 80486cb:	6a 03                	push   $0x3
 80486cd:	89 e3                	mov    %esp,%ebx
 80486cf:	b8 15 00 00 00       	mov    $0x15,%eax
 80486d4:	cd 90                	int    $0x90
 80486d6:	83 c4 04             	add    $0x4,%esp
 80486d9:	c3                   	ret    

080486da <unlink>:
 80486da:	6a 01                	push   $0x1
 80486dc:	89 e3                	mov    %esp,%ebx
 80486de:	b8 16 00 00 00       	mov    $0x16,%eax
 80486e3:	cd 90                	int    $0x90
 80486e5:	83 c4 04             	add    $0x4,%esp
 80486e8:	c3                   	ret    

080486e9 <create>:
 80486e9:	6a 01                	push   $0x1
 80486eb:	89 e3                	mov    %esp,%ebx
 80486ed:	b8 17 00 00 00       	mov    $0x17,%eax
 80486f2:	cd 90                	int    $0x90
 80486f4:	83 c4 04             	add    $0x4,%esp
 80486f7:	c3                   	ret    

080486f8 <delete>:
 80486f8:	6a 01                	push   $0x1
 80486fa:	89 e3                	mov    %esp,%ebx
 80486fc:	b8 18 00 00 00       	mov    $0x18,%eax
 8048701:	cd 90                	int    $0x90
 8048703:	83 c4 04             	add    $0x4,%esp
 8048706:	c3                   	ret    

08048707 <opendir>:
 8048707:	6a 01                	push   $0x1
 8048709:	89 e3                	mov    %esp,%ebx
 804870b:	b8 19 00 00 00       	mov    $0x19,%eax
 8048710:	cd 90                	int    $0x90
 8048712:	83 c4 04             	add    $0x4,%esp
 8048715:	c3                   	ret    

08048716 <createdir>:
 8048716:	6a 01                	push   $0x1
 8048718:	89 e3                	mov    %esp,%ebx
 804871a:	b8 1a 00 00 00       	mov    $0x1a,%eax
 804871f:	cd 90                	int    $0x90
 8048721:	83 c4 04             	add    $0x4,%esp
 8048724:	c3                   	ret    

08048725 <deletedir>:
 8048725:	6a 01                	push   $0x1
 8048727:	89 e3                	mov    %esp,%ebx
 8048729:	b8 1b 00 00 00       	mov    $0x1b,%eax
 804872e:	cd 90                	int    $0x90
 8048730:	83 c4 04             	add    $0x4,%esp
 8048733:	c3                   	ret    

08048734 <GraphFlush>:
 8048734:	53                   	push   %ebx
 8048735:	8b 5c 24 08          	mov    0x8(%esp),%ebx
 8048739:	b8 1c 00 00 00       	mov    $0x1c,%eax
 804873e:	cd 90                	int    $0x90
 8048740:	5b                   	pop    %ebx
 8048741:	c3                   	ret    

08048742 <send>:
 8048742:	53                   	push   %ebx
 8048743:	8b 5c 24 08          	mov    0x8(%esp),%ebx
 8048747:	b8 1d 00 00 00       	mov    $0x1d,%eax
 804874c:	cd 90                	int    $0x90
 804874e:	5b                   	pop    %ebx
 804874f:	c3                   	ret    

08048750 <recv>:
 8048750:	53                   	push   %ebx
 8048751:	8b 5c 24 08          	mov    0x8(%esp),%ebx
 8048755:	b8 1e 00 00 00       	mov    $0x1e,%eax
 804875a:	cd 90                	int    $0x90
 804875c:	5b                   	pop    %ebx
 804875d:	c3                   	ret    
